ccopy_reg
_reconstructor
p0
(cpandaharvester.harvestercore.job_spec
JobSpec
p1
c__builtin__
object
p2
Ntp3
Rp4
(dp5
S'stagerLock'
p6
NsS'changedAttrs'
p7
(dp8
sS'subStatus'
p9
Vdone
p10
sS'outputFilesToReport'
p11
V<?xml version="1.0" encoding="UTF-8" standalone="no" ?>\u000a    <!-- ATLAS file meta-data catalog -->\u000a    <!DOCTYPE POOLFILECATALOG SYSTEM "InMemory">\u000a    <POOLFILECATALOG>\u000a    "<File ID="cf74dcc4-e84f-48dc-9fc6-6c12a13a0e81">\u000a        <logical>\u000a        <lfn name="b6febf55-397a-4b80-9b41-c020fa729598_1.job.log.tgz"/>\u000a        </logical>\u000a        <metadata att_name="fsize" att_value = "3611"/>\u000a        <metadata att_name="adler32" att_value="0acc1329"/>\u000a        </File> \u000a    </POOLFILECATALOG>\u000a    
p12
sS'jobAttributes'
p13
(dp14
sS'metaData'
p15
NsS'hasOutFile'
p16
I0
sS'zipEventMap'
p17
(dp18
sS'nCore'
p19
I24
sS'preparatorTime'
p20
NsS'events'
p21
c__builtin__
set
p22
((lp23
tp24
Rp25
sS'zipFileMap'
p26
(dp27
sS'status'
p28
Vfailed
p29
sS'stagerTime'
p30
cdatetime
datetime
p31
(S'\x07\xe1\x03\x1b\x08\x0e*\nH\xa3'
p32
tp33
Rp34
sS'attemptNr'
p35
I0
sS'modificationTime'
p36
g31
(S'\x07\xe1\x03\x1b\x08\x03(\x0e\xcb\xdf'
p37
tp38
Rp39
sS'zipPerMB'
p40
I1024
sS'startTime'
p41
g31
(S'\x07\xe1\x03\x1b\x072*\r\x8e\xca'
p42
tp43
Rp44
sS'attributes'
p45
(lp46
S'PandaID'
p47
aS'taskID'
p48
ag35
ag28
ag9
aS'currentPriority'
p49
aS'computingSite'
p50
aS'creationTime'
p51
ag36
aS'stateChangeTime'
p52
ag41
aS'endTime'
p53
ag19
aS'jobParams'
p54
ag13
ag16
ag15
ag11
aS'lockedBy'
p55
aS'propagatorLock'
p56
aS'propagatorTime'
p57
ag20
aS'submitterTime'
p58
ag6
ag30
ag40
asS'outFiles'
p59
g22
((lp60
tp61
Rp62
sg49
I10000
sg55
Nsg47
I1759473585
sg57
Nsg58
g31
(S'\x07\xe1\x03\x17\r\x171\x0b\xa8\xe3'
p63
tp64
Rp65
sg54
(dp66
VjobsetID
p67
VNULL
p68
sVlogGUID
p69
Vcf74dcc4-e84f-48dc-9fc6-6c12a13a0e81
p70
sVcmtConfig
p71
Vi686-slc5-gcc43-opt
p72
sVprodDBlocks
p73
Vmc10_7TeV.105001.pythia_minbias.evgen.EVNT.e574_tid153937_00,ddo.000001.Atlas.Ideal.DBRelease.v170602
p74
sVdispatchDBlockTokenForOut
p75
VNULL,NULL
p76
sVdestinationDBlockToken
p77
VATLASDATADISK,ATLASDATADISK
p78
sVdestinationSE
p79
VRAL-LCG2
p80
sVrealDatasets
p81
Vpanda.destDB.1a2eac06-0ae4-4b40-ad8a-0a7eb95e9e0b,panda.destDB.1a2eac06-0ae4-4b40-ad8a-0a7eb95e9e0b
p82
sVprodUserID
p83
V/C=UK/O=eScience/OU=Edinburgh/L=NeSC/CN=andrew washbrook/CN=proxy
p84
sVGUID
p85
V0CC1434F-9C9A-DF11-8207-003048D2BAB2,39e0c6b7-0979-442f-9d3d-ad840194607e
p86
sVrealDatasetsIn
p87
Vmc10_7TeV.105001.pythia_minbias.evgen.EVNT.e574_tid153937_00,ddo.000001.Atlas.Ideal.DBRelease.v170602
p88
sVnSent
p89
I1
sVcloud
p90
VUK
p91
sVStatusCode
p92
I0
sVhomepackage
p93
VAtlasProduction/17.0.5.6
p94
sVinFiles
p95
VEVNT.153937._000184.pool.root.1,DBRelease-17.6.2.tar.gz
p96
sVprocessingType
p97
Vtest
p98
sVddmEndPointOut
p99
VPANDA_UNDEFINED,PANDA_UNDEFINED
p100
sVfsize
p101
V33902810,552868953
p102
sVfileDestinationSE
p103
VRAL-LCG2,RAL-LCG2
p104
sVscopeOut
p105
Vpanda
p106
sVminRamCount
p107
I0
sVjobDefinitionID
p108
I402
sVmaxWalltime
p109
VNULL
p110
sVscopeLog
p111
Vpanda
p112
sVtransformation
p113
VAtlasG4_trf.py
p114
sVmaxDiskCount
p115
I0
sVcoreCount
p116
VNULL
p117
sVprodDBlockToken
p118
VNULL,NULL
p119
sVtransferType
p120
VNULL
p121
sVdestinationDblock
p122
Vpanda.destDB.1a2eac06-0ae4-4b40-ad8a-0a7eb95e9e0b_sub0104840166,panda.destDB.1a2eac06-0ae4-4b40-ad8a-0a7eb95e9e0b_sub0104840166
p123
sVdispatchDBlockToken
p124
VNULL,NULL
p125
sVjobPars
p126
VinputEvgenFile=EVNT.153937._000184.pool.root.1 outputHitsFile=b6febf55-397a-4b80-9b41-c020fa729598_1.HITS.pool.root maxEvents=3 skipEvents=0 DBRelease=DBRelease-17.6.2.tar.gz geometryVersion=ATLAS-GEO-18-01-03_VALIDATION conditionsTag=OFLCOND-SDR-BS7T-05-14 randomSeed=1 physicsList=QGSP_BERT RunNumber=116870 firstEvent=1
p127
sVattemptNr
p128
I0
sVswRelease
p129
VAtlas-17.0.5
p130
sVnucleus
p131
VNULL
p132
sVmaxCpuCount
p133
I0
sVoutFiles
p134
Vb6febf55-397a-4b80-9b41-c020fa729598_1.HITS.pool.root,b6febf55-397a-4b80-9b41-c020fa729598_1.job.log.tgz
p135
sVcurrentPriority
p136
I10000
sVscopeIn
p137
Vmc10_7TeV,ddo
p138
sVPandaID
p139
I1759473585
sVsourceSite
p140
VNULL
p141
sVinFilePaths
p142
V/global/homes/t/tmaeno/rucio/mc10_7TeV/fc/02/EVNT.153937._000184.pool.root.1,/global/homes/t/tmaeno/rucio/ddo/e4/23/DBRelease-17.6.2.tar.gz
p143
sVdispatchDblock
p144
Vpanda.NULL.03.06.GEN.2619ebde-2d75-414d-b5b8-7a12b9d612f0_dis001759473585,panda.NULL.03.06.GEN.2619ebde-2d75-414d-b5b8-7a12b9d612f0_dis001759473585
p145
sVprodSourceLabel
p146
Vtest
p147
sVchecksum
p148
Vad:b60df406,ad:e6a2dabe
p149
sVjobName
p150
Vb6febf55-397a-4b80-9b41-c020fa729598_1
p151
sVddmEndPointIn
p152
VPANDA_UNDEFINED,PANDA_UNDEFINED
p153
sVtaskID
p154
VNULL
p155
sVlogFile
p156
Vb6febf55-397a-4b80-9b41-c020fa729598_1.job.log.tgz
p157
ssg52
g31
(S'\x07\xe1\x03\x17\r\x081\x03\xdaR'
p158
tp159
Rp160
sg51
g31
(S'\x07\xe1\x03\x17\r\x081\x03\xdaR'
p161
tp162
Rp163
sg48
VNULL
p164
sg56
NsS'serializedAttrs'
p165
g22
((lp166
g54
ag15
ag11
ag13
atp167
Rp168
sg53
g31
(S'\x07\xe1\x03\x1b\x08\x03)\x01\xe1\x11'
p169
tp170
Rp171
sg50
VBNL_PROD_5
p172
sb.