ccopy_reg
_reconstructor
p0
(cpandaharvester.harvestercore.work_spec
WorkSpec
p1
c__builtin__
object
p2
Ntp3
Rp4
(dp5
S'eventsRequestParams'
p6
NsS'changedAttrs'
p7
(dp8
S'status'
p9
S'submitted'
p10
ssS'eventFeedTime'
p11
NsS'nodeID'
p12
NsS'pandaid_list'
p13
NsS'workParams'
p14
NsS'postProcessed'
p15
I1
sS'nCore'
p16
I24
sS'isNew'
p17
I00
sS'mapType'
p18
VOneToOne
p19
sS'workAttributes'
p20
(dp21
sS'eventsRequest'
p22
NsS'status'
p23
g10
sS'lastUpdate'
p24
NsS'accessPoint'
p25
V/global/homes/t/tmaeno/workdir/panda/5
p26
sS'workerID'
p27
I5
sS'modificationTime'
p28
cdatetime
datetime
p29
(S'\x07\xe1\x03\x1b\x08\x035\x03J '
p30
tp31
Rp32
sS'batchID'
p33
V4562339
p34
sS'submitTime'
p35
g29
(S"\x07\xe1\x03\x1b\x08\x07'\x00yf"
p36
tp37
Rp38
sS'jobspec_list'
p39
NsS'startTime'
p40
NsS'attributes'
p41
(lp42
g27
ag33
ag18
aS'queueName'
p43
ag23
aS'hasJob'
p44
ag14
ag20
ag6
ag22
aS'computingSite'
p45
aS'creationTime'
p46
ag35
ag40
aS'endTime'
p47
ag16
aS'walltime'
p48
ag25
ag28
ag24
ag11
aS'lockedBy'
p49
ag15
ag12
asg49
Nsg48
NsS'nextLookup'
p50
I00
sg46
g29
(S"\x07\xe1\x03\x1b\x08\x07'\x00\x0e\x8a"
p51
tp52
Rp53
sS'serializedAttrs'
p54
c__builtin__
set
p55
((lp56
g20
ag14
ag6
atp57
Rp58
sg47
Nsg43
Nsg45
VBNL_PROD_5
p59
sg44
I1
sb.